target datalayout = "e-m:e-p270:32:32-p271:32:32-p272:64:64-i64:64-i128:128-f80:128-n8:16:32:64-S128"
target triple = "x86_64-pc-linux-gnu"

%class.QString = type { ptr }

@_ZTV31MLRenderingSingleLightingAction = external unnamed_addr constant { [19 x ptr] }, align 8
@.str.25 = private unnamed_addr constant [7 x i8] c"Single\00", align 1

; Function Attrs: mustprogress nounwind uwtable
define linkonce_odr void @_ZN17MLRenderingActionD2Ev(ptr noundef nonnull align 8 dereferenceable(16) %0) unnamed_addr #4 comdat align 2 {
  %2 = alloca ptr, align 8
  store ptr %0, ptr %2, align 8
  %3 = load ptr, ptr %2, align 8
  call void @_ZN7QActionD2Ev(ptr noundef nonnull align 8 dereferenceable(16) %3) #3
  ret void
}

; Function Attrs: mustprogress uwtable
define linkonce_odr void @_ZN7QStringC2EPKc(ptr noundef nonnull align 8 dereferenceable(8) %0, ptr noundef %1) unnamed_addr #5 comdat align 2 {
  %3 = alloca ptr, align 8
  %4 = alloca ptr, align 8
  store ptr %0, ptr %3, align 8
  store ptr %1, ptr %4, align 8
  %5 = load ptr, ptr %3, align 8
  %6 = getelementptr inbounds %class.QString, ptr %5, i32 0, i32 0
  %7 = load ptr, ptr %4, align 8
  %8 = load ptr, ptr %4, align 8
  %9 = icmp ne ptr %8, null
  br i1 %9, label %10, label %14

10:                                               ; preds = %2
  %11 = load ptr, ptr %4, align 8
  %12 = call i64 @strlen(ptr noundef %11) #17
  %13 = trunc i64 %12 to i32
  br label %15

14:                                               ; preds = %2
  br label %15

15:                                               ; preds = %14, %10
  %16 = phi i32 [ %13, %10 ], [ -1, %14 ]
  %17 = call noundef ptr @_ZN7QString16fromAscii_helperEPKci(ptr noundef %7, i32 noundef %16)
  store ptr %17, ptr %6, align 8
  ret void
}

; Function Attrs: mustprogress uwtable
define void @_ZN31MLRenderingSingleLightingActionC2EP7QObject(ptr noundef nonnull align 8 dereferenceable(16) %0, ptr noundef %1) unnamed_addr #5 align 2 personality ptr @__gxx_personality_v0 {
  %3 = alloca ptr, align 8
  %4 = alloca ptr, align 8
  %5 = alloca %class.QString, align 8
  %6 = alloca ptr, align 8
  %7 = alloca i32, align 4
  store ptr %0, ptr %3, align 8
  store ptr %1, ptr %4, align 8
  %8 = load ptr, ptr %3, align 8
  %9 = load ptr, ptr %4, align 8
  call void @_ZN17MLRenderingActionC2EP7QObject(ptr noundef nonnull align 8 dereferenceable(16) %8, ptr noundef %9)
  store ptr getelementptr inbounds ({ [19 x ptr] }, ptr @_ZTV31MLRenderingSingleLightingAction, i32 0, i32 0, i32 2), ptr %8, align 8
  invoke void @_ZN7QStringC2EPKc(ptr noundef nonnull align 8 dereferenceable(8) %5, ptr noundef @.str.25)
          to label %10 unwind label %12

10:                                               ; preds = %2
  invoke void @_ZN7QAction7setTextERK7QString(ptr noundef nonnull align 8 dereferenceable(16) %8, ptr noundef nonnull align 8 dereferenceable(8) %5)
          to label %11 unwind label %16

11:                                               ; preds = %10
  call void @_ZN7QStringD2Ev(ptr noundef nonnull align 8 dereferenceable(8) %5) #3
  ret void

12:                                               ; preds = %2
  %13 = landingpad { ptr, i32 }
          cleanup
  %14 = extractvalue { ptr, i32 } %13, 0
  store ptr %14, ptr %6, align 8
  %15 = extractvalue { ptr, i32 } %13, 1
  store i32 %15, ptr %7, align 4
  br label %20

16:                                               ; preds = %10
  %17 = landingpad { ptr, i32 }
          cleanup
  %18 = extractvalue { ptr, i32 } %17, 0
  store ptr %18, ptr %6, align 8
  %19 = extractvalue { ptr, i32 } %17, 1
  store i32 %19, ptr %7, align 4
  call void @_ZN7QStringD2Ev(ptr noundef nonnull align 8 dereferenceable(8) %5) #3
  br label %20

20:                                               ; preds = %16, %12
  call void @_ZN17MLRenderingActionD2Ev(ptr noundef nonnull align 8 dereferenceable(16) %8) #3
  br label %21

21:                                               ; preds = %20
  %22 = load ptr, ptr %6, align 8
  %23 = load i32, ptr %7, align 4
  %24 = insertvalue { ptr, i32 } poison, ptr %22, 0
  %25 = insertvalue { ptr, i32 } %24, i32 %23, 1
  resume { ptr, i32 } %25
}